; Function Attrs: nounwind uwtable
define range(i32 0, 2) i32 @ossl_quic_wire_decode_frame_handshake_done(ptr noundef captures(none) %0) local_unnamed_addr #2 {
  %2 = getelementptr i8, ptr %0, i64 8
  %.val.i.i.i = load i64, ptr %2, align 8, !tbaa !52
  %3 = icmp eq i64 %.val.i.i.i, 0
  br i1 %3, label %expect_frame_header.exit, label %4

4:                                                ; preds = %1
  %5 = load ptr, ptr %0, align 8, !tbaa !54
  %6 = load i8, ptr %5, align 1, !tbaa !55
  %7 = lshr i8 %6, 6
  %8 = zext nneg i8 %7 to i32
  %9 = shl nuw nsw i32 1, %8
  %10 = zext nneg i32 %9 to i64
  %11 = icmp ult i64 %.val.i.i.i, %10
  br i1 %11, label %expect_frame_header.exit, label %12

12:                                               ; preds = %4
  %13 = tail call i64 @ossl_quic_vlint_decode_unchecked(ptr noundef nonnull %5) #12
  %14 = load ptr, ptr %0, align 8, !tbaa !54
  %15 = getelementptr inbounds nuw i8, ptr %14, i64 %10
  store ptr %15, ptr %0, align 8, !tbaa !54
  %16 = load i64, ptr %2, align 8, !tbaa !52
  %17 = sub i64 %16, %10
  store i64 %17, ptr %2, align 8, !tbaa !52
  %18 = icmp eq i64 %13, 30
  %19 = zext i1 %18 to i32
  br label %expect_frame_header.exit

expect_frame_header.exit:                         ; preds = %1, %4, %12
  %.not.i = phi i32 [ 0, %1 ], [ 0, %4 ], [ %19, %12 ]
  ret i32 %.not.i
}